target datalayout = "e-m:e-p270:32:32-p271:32:32-p272:64:64-i64:64-i128:128-f80:128-n8:16:32:64-S128"
target triple = "x86_64-pc-linux-gnu"

%struct.wc_Sha512 = type { [8 x i64], [16 x i64], i32, i64, i64, ptr }
%union.Digest = type { %struct.wc_Sha512 }

; Function Attrs: nounwind uwtable
define i32 @CreateRSAEncodedSig(ptr noundef %0, ptr noundef %1, i32 noundef %2, i32 noundef %3, i32 noundef %4) #0 {
  %6 = alloca i32, align 4
  %7 = alloca ptr, align 8
  %8 = alloca ptr, align 8
  %9 = alloca i32, align 4
  %10 = alloca i32, align 4
  %11 = alloca i32, align 4
  %12 = alloca %union.Digest, align 16
  %13 = alloca i32, align 4
  %14 = alloca i32, align 4
  %15 = alloca ptr, align 8
  %16 = alloca i32, align 4
  store ptr %0, ptr %7, align 8, !tbaa !8
  store ptr %1, ptr %8, align 8, !tbaa !8
  store i32 %2, ptr %9, align 4, !tbaa !10
  store i32 %3, ptr %10, align 4, !tbaa !10
  store i32 %4, ptr %11, align 4, !tbaa !10
  call void @llvm.lifetime.start.p0(i64 224, ptr %12) #8
  call void @llvm.lifetime.start.p0(i64 4, ptr %13) #8
  store i32 0, ptr %13, align 4, !tbaa !10
  call void @llvm.lifetime.start.p0(i64 4, ptr %14) #8
  store i32 -173, ptr %14, align 4, !tbaa !10
  call void @llvm.lifetime.start.p0(i64 8, ptr %15) #8
  %17 = load ptr, ptr %7, align 8, !tbaa !8
  store ptr %17, ptr %15, align 8, !tbaa !8
  %18 = load i32, ptr %11, align 4, !tbaa !10
  switch i32 %18, label %64 [
    i32 4, label %19
    i32 5, label %34
    i32 6, label %49
  ]

19:                                               ; preds = %5
  %20 = call i32 @wc_InitSha256(ptr noundef %12)
  store i32 %20, ptr %14, align 4, !tbaa !10
  %21 = load i32, ptr %14, align 4, !tbaa !10
  %22 = icmp eq i32 %21, 0
  br i1 %22, label %23, label %33

23:                                               ; preds = %19
  %24 = load ptr, ptr %8, align 8, !tbaa !8
  %25 = load i32, ptr %9, align 4, !tbaa !10
  %26 = call i32 @wc_Sha256Update(ptr noundef %12, ptr noundef %24, i32 noundef %25)
  store i32 %26, ptr %14, align 4, !tbaa !10
  %27 = load i32, ptr %14, align 4, !tbaa !10
  %28 = icmp eq i32 %27, 0
  br i1 %28, label %29, label %32

29:                                               ; preds = %23
  %30 = load ptr, ptr %15, align 8, !tbaa !8
  %31 = call i32 @wc_Sha256Final(ptr noundef %12, ptr noundef %30)
  store i32 %31, ptr %14, align 4, !tbaa !10
  br label %32

32:                                               ; preds = %29, %23
  call void @wc_Sha256Free(ptr noundef %12)
  br label %33

33:                                               ; preds = %32, %19
  store i32 32, ptr %13, align 4, !tbaa !10
  br label %65

34:                                               ; preds = %5
  %35 = call i32 @wc_InitSha384(ptr noundef %12)
  store i32 %35, ptr %14, align 4, !tbaa !10
  %36 = load i32, ptr %14, align 4, !tbaa !10
  %37 = icmp eq i32 %36, 0
  br i1 %37, label %38, label %48

38:                                               ; preds = %34
  %39 = load ptr, ptr %8, align 8, !tbaa !8
  %40 = load i32, ptr %9, align 4, !tbaa !10
  %41 = call i32 @wc_Sha384Update(ptr noundef %12, ptr noundef %39, i32 noundef %40)
  store i32 %41, ptr %14, align 4, !tbaa !10
  %42 = load i32, ptr %14, align 4, !tbaa !10
  %43 = icmp eq i32 %42, 0
  br i1 %43, label %44, label %47

44:                                               ; preds = %38
  %45 = load ptr, ptr %15, align 8, !tbaa !8
  %46 = call i32 @wc_Sha384Final(ptr noundef %12, ptr noundef %45)
  store i32 %46, ptr %14, align 4, !tbaa !10
  br label %47

47:                                               ; preds = %44, %38
  call void @wc_Sha384Free(ptr noundef %12)
  br label %48

48:                                               ; preds = %47, %34
  store i32 48, ptr %13, align 4, !tbaa !10
  br label %65

49:                                               ; preds = %5
  %50 = call i32 @wc_InitSha512(ptr noundef %12)
  store i32 %50, ptr %14, align 4, !tbaa !10
  %51 = load i32, ptr %14, align 4, !tbaa !10
  %52 = icmp eq i32 %51, 0
  br i1 %52, label %53, label %63

53:                                               ; preds = %49
  %54 = load ptr, ptr %8, align 8, !tbaa !8
  %55 = load i32, ptr %9, align 4, !tbaa !10
  %56 = call i32 @wc_Sha512Update(ptr noundef %12, ptr noundef %54, i32 noundef %55)
  store i32 %56, ptr %14, align 4, !tbaa !10
  %57 = load i32, ptr %14, align 4, !tbaa !10
  %58 = icmp eq i32 %57, 0
  br i1 %58, label %59, label %62

59:                                               ; preds = %53
  %60 = load ptr, ptr %15, align 8, !tbaa !8
  %61 = call i32 @wc_Sha512Final(ptr noundef %12, ptr noundef %60)
  store i32 %61, ptr %14, align 4, !tbaa !10
  br label %62

62:                                               ; preds = %59, %53
  call void @wc_Sha512Free(ptr noundef %12)
  br label %63

63:                                               ; preds = %62, %49
  store i32 64, ptr %13, align 4, !tbaa !10
  br label %65

64:                                               ; preds = %5
  store i32 -173, ptr %14, align 4, !tbaa !10
  br label %65

65:                                               ; preds = %64, %63, %48, %33
  %66 = load i32, ptr %14, align 4, !tbaa !10
  %67 = icmp ne i32 %66, 0
  br i1 %67, label %68, label %70

68:                                               ; preds = %65
  %69 = load i32, ptr %14, align 4, !tbaa !10
  store i32 %69, ptr %6, align 4
  store i32 1, ptr %16, align 4
  br label %72

70:                                               ; preds = %65
  %71 = load i32, ptr %13, align 4, !tbaa !10
  store i32 %71, ptr %6, align 4
  store i32 1, ptr %16, align 4
  br label %72

72:                                               ; preds = %70, %68
  call void @llvm.lifetime.end.p0(i64 8, ptr %15) #8
  call void @llvm.lifetime.end.p0(i64 4, ptr %14) #8
  call void @llvm.lifetime.end.p0(i64 4, ptr %13) #8
  call void @llvm.lifetime.end.p0(i64 224, ptr %12) #8
  %73 = load i32, ptr %6, align 4
  ret i32 %73
}