; Function Attrs: nounwind uwtable
define range(i32 1, 0) i32 @CreateRSAEncodedSig(ptr noundef %0, ptr noundef %1, i32 noundef %2, i32 %3, i32 noundef %4) local_unnamed_addr #0 {
  %6 = alloca %union.Digest, align 16
  call void @llvm.lifetime.start.p0(i64 224, ptr nonnull %6) #11
  switch i32 %4, label %.thread [
    i32 4, label %7
    i32 5, label %16
    i32 6, label %25
  ]

7:                                                ; preds = %5
  %8 = call i32 @wc_InitSha256(ptr noundef nonnull %6) #11
  %9 = icmp eq i32 %8, 0
  br i1 %9, label %10, label %.thread

10:                                               ; preds = %7
  %11 = call i32 @wc_Sha256Update(ptr noundef nonnull %6, ptr noundef %1, i32 noundef %2) #11
  %12 = icmp eq i32 %11, 0
  br i1 %12, label %13, label %15

13:                                               ; preds = %10
  %14 = call i32 @wc_Sha256Final(ptr noundef nonnull %6, ptr noundef %0) #11
  br label %15

15:                                               ; preds = %13, %10
  %.1 = phi i32 [ %14, %13 ], [ %11, %10 ]
  call void @wc_Sha256Free(ptr noundef nonnull %6) #11
  br label %34

16:                                               ; preds = %5
  %17 = call i32 @wc_InitSha384(ptr noundef nonnull %6) #11
  %18 = icmp eq i32 %17, 0
  br i1 %18, label %19, label %.thread

19:                                               ; preds = %16
  %20 = call i32 @wc_Sha384Update(ptr noundef nonnull %6, ptr noundef %1, i32 noundef %2) #11
  %21 = icmp eq i32 %20, 0
  br i1 %21, label %22, label %24

22:                                               ; preds = %19
  %23 = call i32 @wc_Sha384Final(ptr noundef nonnull %6, ptr noundef %0) #11
  br label %24

24:                                               ; preds = %22, %19
  %.4 = phi i32 [ %23, %22 ], [ %20, %19 ]
  call void @wc_Sha384Free(ptr noundef nonnull %6) #11
  br label %34

25:                                               ; preds = %5
  %26 = call i32 @wc_InitSha512(ptr noundef nonnull %6) #11
  %27 = icmp eq i32 %26, 0
  br i1 %27, label %28, label %.thread

28:                                               ; preds = %25
  %29 = call i32 @wc_Sha512Update(ptr noundef nonnull %6, ptr noundef %1, i32 noundef %2) #11
  %30 = icmp eq i32 %29, 0
  br i1 %30, label %31, label %33

31:                                               ; preds = %28
  %32 = call i32 @wc_Sha512Final(ptr noundef nonnull %6, ptr noundef %0) #11
  br label %33

33:                                               ; preds = %31, %28
  %.6 = phi i32 [ %32, %31 ], [ %29, %28 ]
  call void @wc_Sha512Free(ptr noundef nonnull %6) #11
  br label %34

34:                                               ; preds = %33, %24, %15
  %.021 = phi i32 [ 32, %15 ], [ 48, %24 ], [ 64, %33 ]
  %.2 = phi i32 [ %.1, %15 ], [ %.4, %24 ], [ %.6, %33 ]
  %.2.fr = freeze i32 %.2
  %.not = icmp eq i32 %.2.fr, 0
  %spec.select = select i1 %.not, i32 %.021, i32 %.2.fr
  br label %.thread

.thread:                                          ; preds = %34, %5, %25, %16, %7
  %35 = phi i32 [ -173, %5 ], [ %26, %25 ], [ %17, %16 ], [ %8, %7 ], [ %spec.select, %34 ]
  call void @llvm.lifetime.end.p0(i64 224, ptr nonnull %6) #11
  ret i32 %35
}